target datalayout = "e-m:e-p270:32:32-p271:32:32-p272:64:64-i64:64-i128:128-f80:128-n8:16:32:64-S128"
target triple = "x86_64-pc-linux-gnu"

%struct.SDL_AtomicInt = type { i32 }
%struct.SDL_error = type { i32, ptr, i64, ptr, ptr }
%struct.SDL_Thread = type { i64, i64, i32, %struct.SDL_AtomicInt, %struct.SDL_error, ptr, i64, ptr, ptr, ptr, ptr }

; Function Attrs: nounwind uwtable
define internal zeroext i1 @ThreadValid(ptr noundef %0) #0 {
  %2 = alloca ptr, align 8
  store ptr %0, ptr %2, align 8
  %3 = load ptr, ptr %2, align 8
  %4 = call zeroext i1 @SDL_ObjectValid(ptr noundef %3, i32 noundef 10)
  ret i1 %4
}

; Function Attrs: nounwind uwtable
define hidden i64 @SDL_GetThreadID_REAL(ptr noundef %0) #0 {
  %2 = alloca ptr, align 8
  %3 = alloca i64, align 8
  store ptr %0, ptr %2, align 8
  call void @llvm.lifetime.start.p0(i64 8, ptr %3) #6
  store i64 0, ptr %3, align 8
  %4 = load ptr, ptr %2, align 8
  %5 = icmp ne ptr %4, null
  br i1 %5, label %6, label %14

6:                                                ; preds = %1
  %7 = load ptr, ptr %2, align 8
  %8 = call zeroext i1 @ThreadValid(ptr noundef %7)
  br i1 %8, label %9, label %13

9:                                                ; preds = %6
  %10 = load ptr, ptr %2, align 8
  %11 = getelementptr inbounds nuw %struct.SDL_Thread, ptr %10, i32 0, i32 0
  %12 = load i64, ptr %11, align 8
  store i64 %12, ptr %3, align 8
  br label %13

13:                                               ; preds = %9, %6
  br label %16

14:                                               ; preds = %1
  %15 = call i64 @SDL_GetCurrentThreadID_REAL()
  store i64 %15, ptr %3, align 8
  br label %16

16:                                               ; preds = %14, %13
  %17 = load i64, ptr %3, align 8
  call void @llvm.lifetime.end.p0(i64 8, ptr %3) #6
  ret i64 %17
}