; Function Attrs: nounwind uwtable
define hidden i64 @SDL_GetThreadID_REAL(ptr noundef %0) local_unnamed_addr #0 {
  %.not = icmp eq ptr %0, null
  br i1 %.not, label %6, label %2

2:                                                ; preds = %1
  %3 = tail call zeroext i1 @SDL_ObjectValid(ptr noundef nonnull %0, i32 noundef 10) #6
  br i1 %3, label %4, label %8

4:                                                ; preds = %2
  %5 = load i64, ptr %0, align 8
  br label %8

6:                                                ; preds = %1
  %7 = tail call i64 @SDL_GetCurrentThreadID_REAL() #6
  br label %8

8:                                                ; preds = %2, %4, %6
  %.0 = phi i64 [ %5, %4 ], [ 0, %2 ], [ %7, %6 ]
  ret i64 %.0
}